target datalayout = "e-m:e-p270:32:32-p271:32:32-p272:64:64-i64:64-i128:128-f80:128-n8:16:32:64-S128"
target triple = "x86_64-pc-linux-gnu"

%struct._packet_info = type { ptr, ptr, i32, i32, %struct.nstime_t, %struct.nstime_t, %struct.nstime_t, i8, ptr, ptr, ptr, ptr, %struct._address, %struct._address, %struct._address, %struct._address, %struct._address, %struct._address, i32, ptr, i8, [3 x i8], %struct.anon, i32, i32, i32, i32, ptr, i8, ptr, ptr, i16, i16, i32, i32, i16, i32, i32, ptr, ptr, ptr, i8, i8, i16, i16, i16, i32, i16, i16, ptr, ptr, ptr, ptr, ptr, i32, i32 }
%struct.nstime_t = type { i64, i32 }
%struct._address = type { i32, i32, ptr, ptr }
%struct.anon = type { i8, [3 x i8] }
%struct._GList = type { ptr, ptr, ptr }
%struct.cba_pdev_s = type { ptr, ptr, i32, [4 x i8] }

@cba_pdevs = hidden global ptr null, align 8

; Function Attrs: alwaysinline nounwind
define internal ptr @memcpy.inline(ptr noalias %0, ptr noalias %1, i64 %2) #5 {
  %4 = alloca ptr, align 8
  %5 = alloca ptr, align 8
  %6 = alloca i64, align 8
  store ptr %0, ptr %4, align 8
  store ptr %1, ptr %5, align 8
  store i64 %2, ptr %6, align 8
  %7 = load ptr, ptr %4, align 8
  %8 = load ptr, ptr %5, align 8
  %9 = load i64, ptr %6, align 8
  %10 = load ptr, ptr %4, align 8
  %11 = call i64 @llvm.objectsize.i64.p0(ptr %10, i1 false, i1 true, i1 true)
  %12 = call ptr @__memcpy_chk(ptr noundef %7, ptr noundef %8, i64 noundef %9, i64 noundef %11) #12
  ret ptr %12
}

; Function Attrs: null_pointer_is_valid sspstrong uwtable
define hidden ptr @cba_pdev_add(ptr noundef %0, ptr noundef %1) #0 {
  %3 = alloca ptr, align 8
  %4 = alloca ptr, align 8
  %5 = alloca ptr, align 8
  %6 = alloca ptr, align 8
  %7 = alloca ptr, align 8
  %8 = alloca i32, align 4
  store ptr %0, ptr %4, align 8
  store ptr %1, ptr %5, align 8
  call void @llvm.lifetime.start.p0(i64 8, ptr %6) #12
  call void @llvm.lifetime.start.p0(i64 8, ptr %7) #12
  %9 = load ptr, ptr @cba_pdevs, align 8
  store ptr %9, ptr %6, align 8
  br label %10

10:                                               ; preds = %36, %2
  %11 = load ptr, ptr %6, align 8
  %12 = icmp ne ptr %11, null
  br i1 %12, label %13, label %38

13:                                               ; preds = %10
  %14 = load ptr, ptr %6, align 8
  %15 = getelementptr inbounds nuw %struct._GList, ptr %14, i32 0, i32 0
  %16 = load ptr, ptr %15, align 8
  store ptr %16, ptr %7, align 8
  %17 = load ptr, ptr %7, align 8
  %18 = getelementptr inbounds nuw %struct.cba_pdev_s, ptr %17, i32 0, i32 3
  %19 = getelementptr inbounds [4 x i8], ptr %18, i64 0, i64 0
  %20 = load ptr, ptr %5, align 8
  %21 = getelementptr inbounds nuw %struct._address, ptr %20, i32 0, i32 2
  %22 = load ptr, ptr %21, align 8
  %23 = call i32 @memcmp(ptr noundef %19, ptr noundef %22, i64 noundef 4) #13
  %24 = icmp eq i32 %23, 0
  br i1 %24, label %25, label %27

25:                                               ; preds = %13
  %26 = load ptr, ptr %7, align 8
  store ptr %26, ptr %3, align 8
  store i32 1, ptr %8, align 4
  br label %61

27:                                               ; preds = %13
  br label %28

28:                                               ; preds = %27
  %29 = load ptr, ptr %6, align 8
  %30 = icmp ne ptr %29, null
  br i1 %30, label %31, label %35

31:                                               ; preds = %28
  %32 = load ptr, ptr %6, align 8
  %33 = getelementptr inbounds nuw %struct._GList, ptr %32, i32 0, i32 1
  %34 = load ptr, ptr %33, align 8
  br label %36

35:                                               ; preds = %28
  br label %36

36:                                               ; preds = %35, %31
  %37 = phi ptr [ %34, %31 ], [ null, %35 ]
  store ptr %37, ptr %6, align 8
  br label %10, !llvm.loop !6

38:                                               ; preds = %10
  %39 = call ptr @wmem_file_scope()
  %40 = call noalias ptr @wmem_alloc(ptr noundef %39, i64 noundef 24) #14
  store ptr %40, ptr %7, align 8
  %41 = load ptr, ptr %7, align 8
  %42 = getelementptr inbounds nuw %struct.cba_pdev_s, ptr %41, i32 0, i32 3
  %43 = getelementptr inbounds [4 x i8], ptr %42, i64 0, i64 0
  %44 = load ptr, ptr %5, align 8
  %45 = getelementptr inbounds nuw %struct._address, ptr %44, i32 0, i32 2
  %46 = load ptr, ptr %45, align 8
  %47 = call ptr @memcpy.inline(ptr noundef %43, ptr noundef %46, i64 noundef 4) #12
  %48 = load ptr, ptr %4, align 8
  %49 = getelementptr inbounds nuw %struct._packet_info, ptr %48, i32 0, i32 3
  %50 = load i32, ptr %49, align 4
  %51 = load ptr, ptr %7, align 8
  %52 = getelementptr inbounds nuw %struct.cba_pdev_s, ptr %51, i32 0, i32 2
  store i32 %50, ptr %52, align 8
  %53 = load ptr, ptr %7, align 8
  %54 = getelementptr inbounds nuw %struct.cba_pdev_s, ptr %53, i32 0, i32 0
  store ptr null, ptr %54, align 8
  %55 = load ptr, ptr %7, align 8
  %56 = getelementptr inbounds nuw %struct.cba_pdev_s, ptr %55, i32 0, i32 1
  store ptr null, ptr %56, align 8
  %57 = load ptr, ptr @cba_pdevs, align 8
  %58 = load ptr, ptr %7, align 8
  %59 = call ptr @g_list_append(ptr noundef %57, ptr noundef %58)
  store ptr %59, ptr @cba_pdevs, align 8
  %60 = load ptr, ptr %7, align 8
  store ptr %60, ptr %3, align 8
  store i32 1, ptr %8, align 4
  br label %61

61:                                               ; preds = %38, %25
  call void @llvm.lifetime.end.p0(i64 8, ptr %7) #12
  call void @llvm.lifetime.end.p0(i64 8, ptr %6) #12
  %62 = load ptr, ptr %3, align 8
  ret ptr %62
}