; Function Attrs: null_pointer_is_valid sspstrong uwtable
define hidden ptr @cba_pdev_add(ptr noundef readonly captures(none) %0, ptr noundef readonly captures(none) %1) local_unnamed_addr #0 {
  %.017 = load ptr, ptr @cba_pdevs, align 8
  %.not18 = icmp eq ptr %.017, null
  br i1 %.not18, label %._crit_edge, label %.lr.ph

.lr.ph:                                           ; preds = %2
  %3 = getelementptr inbounds nuw i8, ptr %1, i64 8
  %4 = load ptr, ptr %3, align 8
  br label %7

5:                                                ; preds = %7
  %6 = getelementptr inbounds nuw i8, ptr %.019, i64 8
  %.0 = load ptr, ptr %6, align 8
  %.not = icmp eq ptr %.0, null
  br i1 %.not, label %._crit_edge, label %7, !llvm.loop !6

7:                                                ; preds = %.lr.ph, %5
  %.019 = phi ptr [ %.017, %.lr.ph ], [ %.0, %5 ]
  %8 = load ptr, ptr %.019, align 8
  %9 = getelementptr inbounds nuw i8, ptr %8, i64 20
  %bcmp = tail call i32 @bcmp(ptr noundef nonnull dereferenceable(4) %9, ptr noundef dereferenceable(4) %4, i64 4)
  %10 = icmp eq i32 %bcmp, 0
  br i1 %10, label %.loopexit, label %5

._crit_edge:                                      ; preds = %5, %2
  %11 = tail call ptr @wmem_file_scope()
  %12 = tail call noalias dereferenceable_or_null(24) ptr @wmem_alloc(ptr noundef %11, i64 noundef 24) #10
  %13 = getelementptr inbounds nuw i8, ptr %12, i64 20
  %14 = getelementptr inbounds nuw i8, ptr %1, i64 8
  %15 = load ptr, ptr %14, align 8
  %16 = load i32, ptr %15, align 1
  store i32 %16, ptr %13, align 1
  %17 = getelementptr inbounds nuw i8, ptr %0, i64 20
  %18 = load i32, ptr %17, align 4
  %19 = getelementptr inbounds nuw i8, ptr %12, i64 16
  store i32 %18, ptr %19, align 8
  tail call void @llvm.memset.p0.i64(ptr noundef align 8 dereferenceable(16) %12, i8 0, i64 16, i1 false)
  %20 = load ptr, ptr @cba_pdevs, align 8
  %21 = tail call ptr @g_list_append(ptr noundef %20, ptr noundef %12)
  store ptr %21, ptr @cba_pdevs, align 8
  br label %.loopexit

.loopexit:                                        ; preds = %7, %._crit_edge
  %.016 = phi ptr [ %12, %._crit_edge ], [ %8, %7 ]
  ret ptr %.016
}